; ModuleID = 'bench/linux/original/dsinit.ll'
source_filename = "bench/linux/original/dsinit.ll"
target datalayout = "e-m:e-p270:32:32-p271:32:32-p272:64:64-i64:64-i128:128-f80:128-n8:16:32:64-S128"
target triple = "x86_64-unknown-linux-gnu"

%struct.acpi_init_walk_info = type { i32, i32, i32, i32, i32, i32, i32, i32, i32, i32, i32, i32, i32, i32, i32, i16 }

@_acpi_module_name = internal constant [7 x i8] c"dsinit\00", align 1
@.str = private unnamed_addr constant [21 x i8] c"During WalkNamespace\00", align 1
@.str.2 = private unnamed_addr constant [40 x i8] c"During Region initialization %p [%4.4s]\00", align 1
@acpi_gbl_auto_serialize_methods = external dso_local local_unnamed_addr global i8, align 1

; Function Attrs: fn_ret_thunk_extern nounwind null_pointer_is_valid
define dso_local i32 @acpi_ds_initialize_objects(i32 noundef %0, ptr noundef %1) local_unnamed_addr #0 align 16 {
  %3 = alloca %struct.acpi_init_walk_info, align 4
  %4 = alloca ptr, align 8
  %5 = alloca i16, align 2
  call void @llvm.lifetime.start.p0(i64 64, ptr nonnull %3) #4
  call void @llvm.lifetime.start.p0(i64 8, ptr nonnull %4) #4
  store ptr null, ptr %4, align 8, !annotation !5
  call void @llvm.lifetime.start.p0(i64 2, ptr nonnull %5) #4
  store i16 0, ptr %5, align 2, !annotation !5
  %6 = call i32 @acpi_tb_get_owner_id(i32 noundef %0, ptr noundef nonnull %5) #4
  %7 = icmp eq i32 %6, 0
  br i1 %7, label %8, label %17

8:                                                ; preds = %2
  %9 = getelementptr inbounds i8, ptr %3, i64 4
  call void @llvm.memset.p0.i64(ptr noundef nonnull align 4 dereferenceable(64) %9, i8 0, i64 60, i1 false)
  %10 = load i16, ptr %5, align 2
  %11 = getelementptr inbounds i8, ptr %3, i64 60
  store i16 %10, ptr %11, align 4
  store i32 %0, ptr %3, align 4
  %12 = call i32 @acpi_ns_walk_namespace(i32 noundef 0, ptr noundef %1, i32 noundef -1, i32 noundef 0, ptr noundef nonnull @acpi_ds_init_one_object, ptr noundef null, ptr noundef nonnull %3, ptr noundef null) #4
  %13 = icmp eq i32 %12, 0
  br i1 %13, label %15, label %14

14:                                               ; preds = %8
  call void (ptr, i32, i32, ptr, ...) @acpi_exception(ptr noundef nonnull @_acpi_module_name, i32 noundef 193, i32 noundef %12, ptr noundef nonnull @.str) #4
  br label %15

15:                                               ; preds = %14, %8
  %16 = call i32 @acpi_get_table_by_index(i32 noundef %0, ptr noundef nonnull %4) #4
  br label %17

17:                                               ; preds = %15, %2
  %18 = phi i32 [ %6, %2 ], [ %16, %15 ]
  call void @llvm.lifetime.end.p0(i64 2, ptr nonnull %5) #4
  call void @llvm.lifetime.end.p0(i64 8, ptr nonnull %4) #4
  call void @llvm.lifetime.end.p0(i64 64, ptr nonnull %3) #4
  ret i32 %18
}

; Function Attrs: mustprogress nocallback nofree nosync nounwind willreturn memory(argmem: readwrite)
declare void @llvm.lifetime.start.p0(i64 immarg, ptr nocapture) #1

; Function Attrs: mustprogress nocallback nofree nounwind willreturn memory(argmem: write)
declare void @llvm.memset.p0.i64(ptr nocapture writeonly, i8, i64, i1 immarg) #2

; Function Attrs: null_pointer_is_valid
declare dso_local i32 @acpi_tb_get_owner_id(i32 noundef, ptr noundef) local_unnamed_addr #3

; Function Attrs: null_pointer_is_valid
declare dso_local i32 @acpi_ns_walk_namespace(i32 noundef, ptr noundef, i32 noundef, i32 noundef, ptr noundef, ptr noundef, ptr noundef, ptr noundef) local_unnamed_addr #3

; Function Attrs: fn_ret_thunk_extern nounwind null_pointer_is_valid
define internal noundef i32 @acpi_ds_init_one_object(ptr noundef %0, i32 %1, ptr nocapture noundef %2, ptr nocapture readnone %3) #0 align 16 {
  %5 = getelementptr inbounds i8, ptr %0, i64 40
  %6 = load i16, ptr %5, align 8
  %7 = getelementptr inbounds i8, ptr %2, i64 60
  %8 = load i16, ptr %7, align 4
  %9 = icmp eq i16 %6, %8
  br i1 %9, label %10, label %48

10:                                               ; preds = %4
  %11 = getelementptr inbounds i8, ptr %2, i64 4
  %12 = load i32, ptr %11, align 4
  %13 = add i32 %12, 1
  store i32 %13, ptr %11, align 4
  %14 = tail call i32 @acpi_ns_get_type(ptr noundef %0) #4
  switch i32 %14, label %48 [
    i32 10, label %15
    i32 8, label %20
    i32 6, label %43
  ]

15:                                               ; preds = %10
  %16 = tail call i32 @acpi_ds_initialize_region(ptr noundef %0) #4
  %17 = icmp eq i32 %16, 0
  br i1 %17, label %43, label %18

18:                                               ; preds = %15
  %19 = tail call ptr @acpi_ut_get_node_name(ptr noundef %0) #4
  tail call void (ptr, i32, i32, ptr, ...) @acpi_exception(ptr noundef nonnull @_acpi_module_name, i32 noundef 75, i32 noundef %16, ptr noundef nonnull @.str.2, ptr noundef %0, ptr noundef %19) #4
  br label %43

20:                                               ; preds = %10
  %21 = getelementptr inbounds i8, ptr %2, i64 8
  %22 = load i32, ptr %21, align 4
  %23 = add i32 %22, 1
  store i32 %23, ptr %21, align 4
  %24 = tail call ptr @acpi_ns_get_attached_object(ptr noundef %0) #4
  %25 = icmp eq ptr %24, null
  br i1 %25, label %48, label %26

26:                                               ; preds = %20
  %27 = getelementptr inbounds i8, ptr %24, i64 13
  %28 = load i8, ptr %27, align 1
  %29 = and i8 %28, 4
  %30 = icmp eq i8 %29, 0
  br i1 %30, label %31, label %43

31:                                               ; preds = %26
  %32 = load i8, ptr @acpi_gbl_auto_serialize_methods, align 1
  %33 = icmp eq i8 %32, 0
  br i1 %33, label %43, label %34

34:                                               ; preds = %31
  %35 = tail call i32 @acpi_ds_auto_serialize_method(ptr noundef %0, ptr noundef nonnull %24) #4
  %36 = load i8, ptr %27, align 1
  %37 = and i8 %36, 4
  %38 = icmp eq i8 %37, 0
  br i1 %38, label %43, label %39

39:                                               ; preds = %34
  %40 = getelementptr inbounds i8, ptr %2, i64 12
  %41 = load i32, ptr %40, align 4
  %42 = add i32 %41, 1
  store i32 %42, ptr %40, align 4
  br label %43

43:                                               ; preds = %39, %34, %31, %26, %18, %15, %10
  %44 = phi i64 [ 20, %39 ], [ 28, %18 ], [ 28, %15 ], [ 12, %26 ], [ 16, %34 ], [ 16, %31 ], [ 24, %10 ]
  %45 = getelementptr inbounds i8, ptr %2, i64 %44
  %46 = load i32, ptr %45, align 4
  %47 = add i32 %46, 1
  store i32 %47, ptr %45, align 4
  br label %48

48:                                               ; preds = %43, %20, %10, %4
  ret i32 0
}

; Function Attrs: null_pointer_is_valid
declare dso_local void @acpi_exception(ptr noundef, i32 noundef, i32 noundef, ptr noundef, ...) local_unnamed_addr #3

; Function Attrs: null_pointer_is_valid
declare dso_local i32 @acpi_get_table_by_index(i32 noundef, ptr noundef) local_unnamed_addr #3

; Function Attrs: mustprogress nocallback nofree nosync nounwind willreturn memory(argmem: readwrite)
declare void @llvm.lifetime.end.p0(i64 immarg, ptr nocapture) #1

; Function Attrs: null_pointer_is_valid
declare dso_local i32 @acpi_ns_get_type(ptr noundef) local_unnamed_addr #3

; Function Attrs: null_pointer_is_valid
declare dso_local i32 @acpi_ds_initialize_region(ptr noundef) local_unnamed_addr #3

; Function Attrs: null_pointer_is_valid
declare dso_local ptr @acpi_ut_get_node_name(ptr noundef) local_unnamed_addr #3

; Function Attrs: null_pointer_is_valid
declare dso_local ptr @acpi_ns_get_attached_object(ptr noundef) local_unnamed_addr #3

; Function Attrs: null_pointer_is_valid
declare dso_local i32 @acpi_ds_auto_serialize_method(ptr noundef, ptr noundef) local_unnamed_addr #3


!llvm.module.flags = !{!0, !1, !2, !3, !4}

!0 = !{i32 1, !"wchar_size", i32 2}
!1 = !{i32 8, !"cf-protection-branch", i32 1}
!2 = !{i32 4, !"function_return_thunk_extern", i32 1}
!3 = !{i32 4, !"indirect_branch_cs_prefix", i32 1}
!4 = !{i32 4, !"SkipRaxSetup", i32 1}
!5 = !{!"auto-init"}
